target datalayout = "e-m:e-p270:32:32-p271:32:32-p272:64:64-i64:64-i128:128-f80:128-n8:16:32:64-S128"
target triple = "x86_64-pc-linux-gnu"

%struct.except_id_t = type { i64, i64 }
%struct.except_stacknode = type { ptr, i32, %union.anon }
%union.anon = type { ptr }
%struct.except_catch = type { ptr, i64, %struct.except_t, [1 x %struct.__jmp_buf_tag] }
%struct.except_t = type { %struct.except_id_t, ptr, ptr }
%struct.__jmp_buf_tag = type { [8 x i64], i32, %struct.__sigset_t }
%struct.__sigset_t = type { [16 x i64] }
%struct._packet_info = type { ptr, ptr, i32, i32, %struct.nstime_t, %struct.nstime_t, %struct.nstime_t, i8, ptr, ptr, ptr, ptr, %struct._address, %struct._address, %struct._address, %struct._address, %struct._address, %struct._address, i32, ptr, i8, [3 x i8], %struct.anon, i32, i32, i32, i32, ptr, i8, ptr, ptr, i16, i16, i32, i32, i16, i32, i32, ptr, ptr, ptr, i8, i8, i16, i16, i16, i32, i16, i16, ptr, ptr, ptr, ptr, ptr, i32, i32 }
%struct.nstime_t = type { i64, i32 }
%struct._address = type { i32, i32, ptr, ptr }
%struct.anon = type { i8, [3 x i8] }

@ldp_desegment = internal global i8 1, align 1
@dissect_ldp_tcp.catch_spec = internal constant [1 x %struct.except_id_t] [%struct.except_id_t { i64 1, i64 0 }], align 16

; Function Attrs: null_pointer_is_valid sspstrong uwtable
define internal i32 @dissect_ldp_tcp(ptr noundef %0, ptr noundef %1, ptr noundef %2, ptr noundef %3) #0 {
  %5 = alloca i32, align 4
  %6 = alloca ptr, align 8
  %7 = alloca ptr, align 8
  %8 = alloca ptr, align 8
  %9 = alloca ptr, align 8
  %10 = alloca i8, align 1
  %11 = alloca i32, align 4
  %12 = alloca i32, align 4
  %13 = alloca i16, align 2
  %14 = alloca i32, align 4
  %15 = alloca ptr, align 8
  %16 = alloca i32, align 4
  %17 = alloca ptr, align 8
  %18 = alloca i32, align 4
  %19 = alloca %struct.except_stacknode, align 8
  %20 = alloca %struct.except_catch, align 8
  store ptr %0, ptr %6, align 8
  store ptr %1, ptr %7, align 8
  store ptr %2, ptr %8, align 8
  store ptr %3, ptr %9, align 8
  call void @llvm.lifetime.start.p0(i64 1, ptr %10) #7
  store volatile i8 1, ptr %10, align 1
  call void @llvm.lifetime.start.p0(i64 4, ptr %11) #7
  store volatile i32 0, ptr %11, align 4
  call void @llvm.lifetime.start.p0(i64 4, ptr %12) #7
  call void @llvm.lifetime.start.p0(i64 2, ptr %13) #7
  call void @llvm.lifetime.start.p0(i64 4, ptr %14) #7
  call void @llvm.lifetime.start.p0(i64 8, ptr %15) #7
  br label %21

21:                                               ; preds = %201, %4
  %22 = load ptr, ptr %6, align 8
  %23 = load volatile i32, ptr %11, align 4
  %24 = call i32 @tvb_reported_length_remaining(ptr noundef %22, i32 noundef %23)
  %25 = icmp ne i32 %24, 0
  br i1 %25, label %26, label %211

26:                                               ; preds = %21
  %27 = load ptr, ptr %6, align 8
  %28 = load volatile i32, ptr %11, align 4
  %29 = call i32 @tvb_captured_length_remaining(ptr noundef %27, i32 noundef %28)
  store i32 %29, ptr %12, align 4
  %30 = load volatile i8, ptr %10, align 1, !range !6, !noundef !7
  %31 = trunc i8 %30 to i1
  br i1 %31, label %32, label %44

32:                                               ; preds = %26
  %33 = load i32, ptr %12, align 4
  %34 = icmp slt i32 %33, 2
  br i1 %34, label %35, label %36

35:                                               ; preds = %32
  store i32 0, ptr %5, align 4
  store i32 1, ptr %16, align 4
  br label %214

36:                                               ; preds = %32
  %37 = load ptr, ptr %6, align 8
  %38 = load volatile i32, ptr %11, align 4
  %39 = call zeroext i16 @tvb_get_ntohs(ptr noundef %37, i32 noundef %38)
  %40 = zext i16 %39 to i32
  %41 = icmp ne i32 %40, 1
  br i1 %41, label %42, label %43

42:                                               ; preds = %36
  store i32 0, ptr %5, align 4
  store i32 1, ptr %16, align 4
  br label %214

43:                                               ; preds = %36
  store volatile i8 0, ptr %10, align 1
  br label %44

44:                                               ; preds = %43, %26
  %45 = load i8, ptr @ldp_desegment, align 1, !range !6, !noundef !7
  %46 = trunc i8 %45 to i1
  br i1 %46, label %47, label %67

47:                                               ; preds = %44
  %48 = load ptr, ptr %7, align 8
  %49 = getelementptr inbounds nuw %struct._packet_info, ptr %48, i32 0, i32 31
  %50 = load i16, ptr %49, align 8
  %51 = zext i16 %50 to i32
  %52 = icmp ne i32 %51, 0
  br i1 %52, label %53, label %67

53:                                               ; preds = %47
  %54 = load i32, ptr %12, align 4
  %55 = icmp slt i32 %54, 4
  br i1 %55, label %56, label %66

56:                                               ; preds = %53
  %57 = load volatile i32, ptr %11, align 4
  %58 = load ptr, ptr %7, align 8
  %59 = getelementptr inbounds nuw %struct._packet_info, ptr %58, i32 0, i32 33
  store i32 %57, ptr %59, align 4
  %60 = load ptr, ptr %7, align 8
  %61 = getelementptr inbounds nuw %struct._packet_info, ptr %60, i32 0, i32 34
  store i32 268435455, ptr %61, align 8
  %62 = load ptr, ptr %7, align 8
  %63 = getelementptr inbounds nuw %struct._packet_info, ptr %62, i32 0, i32 34
  %64 = load i32, ptr %63, align 8
  %65 = sub i32 0, %64
  store i32 %65, ptr %5, align 4
  store i32 1, ptr %16, align 4
  br label %214

66:                                               ; preds = %53
  br label %67

67:                                               ; preds = %66, %47, %44
  %68 = load ptr, ptr %6, align 8
  %69 = load volatile i32, ptr %11, align 4
  %70 = add i32 %69, 2
  %71 = call zeroext i16 @tvb_get_ntohs(ptr noundef %68, i32 noundef %70)
  store i16 %71, ptr %13, align 2
  %72 = load i8, ptr @ldp_desegment, align 1, !range !6, !noundef !7
  %73 = trunc i8 %72 to i1
  br i1 %73, label %74, label %102

74:                                               ; preds = %67
  %75 = load ptr, ptr %7, align 8
  %76 = getelementptr inbounds nuw %struct._packet_info, ptr %75, i32 0, i32 31
  %77 = load i16, ptr %76, align 8
  %78 = zext i16 %77 to i32
  %79 = icmp ne i32 %78, 0
  br i1 %79, label %80, label %102

80:                                               ; preds = %74
  %81 = load i32, ptr %12, align 4
  %82 = load i16, ptr %13, align 2
  %83 = zext i16 %82 to i32
  %84 = add i32 %83, 4
  %85 = icmp slt i32 %81, %84
  br i1 %85, label %86, label %101

86:                                               ; preds = %80
  %87 = load volatile i32, ptr %11, align 4
  %88 = load ptr, ptr %7, align 8
  %89 = getelementptr inbounds nuw %struct._packet_info, ptr %88, i32 0, i32 33
  store i32 %87, ptr %89, align 4
  %90 = load i16, ptr %13, align 2
  %91 = zext i16 %90 to i32
  %92 = add i32 %91, 4
  %93 = load i32, ptr %12, align 4
  %94 = sub i32 %92, %93
  %95 = load ptr, ptr %7, align 8
  %96 = getelementptr inbounds nuw %struct._packet_info, ptr %95, i32 0, i32 34
  store i32 %94, ptr %96, align 8
  %97 = load ptr, ptr %7, align 8
  %98 = getelementptr inbounds nuw %struct._packet_info, ptr %97, i32 0, i32 34
  %99 = load i32, ptr %98, align 8
  %100 = sub i32 0, %99
  store i32 %100, ptr %5, align 4
  store i32 1, ptr %16, align 4
  br label %214

101:                                              ; preds = %80
  br label %102

102:                                              ; preds = %101, %74, %67
  %103 = load i32, ptr %12, align 4
  store i32 %103, ptr %14, align 4
  %104 = load i32, ptr %14, align 4
  %105 = load i16, ptr %13, align 2
  %106 = zext i16 %105 to i32
  %107 = add i32 %106, 4
  %108 = icmp sgt i32 %104, %107
  br i1 %108, label %109, label %113

109:                                              ; preds = %102
  %110 = load i16, ptr %13, align 2
  %111 = zext i16 %110 to i32
  %112 = add i32 %111, 4
  store i32 %112, ptr %14, align 4
  br label %113

113:                                              ; preds = %109, %102
  %114 = load ptr, ptr %6, align 8
  %115 = load volatile i32, ptr %11, align 4
  %116 = load i32, ptr %14, align 4
  %117 = load i16, ptr %13, align 2
  %118 = zext i16 %117 to i32
  %119 = add i32 %118, 4
  %120 = call ptr @tvb_new_subset_length_caplen(ptr noundef %114, i32 noundef %115, i32 noundef %116, i32 noundef %119)
  store volatile ptr %120, ptr %15, align 8
  call void @llvm.lifetime.start.p0(i64 8, ptr %17) #7
  call void @llvm.lifetime.start.p0(i64 4, ptr %18) #7
  store volatile i32 0, ptr %18, align 4
  call void @llvm.lifetime.start.p0(i64 24, ptr %19) #7
  call void @llvm.lifetime.start.p0(i64 248, ptr %20) #7
  call void @except_setup_try(ptr noundef %19, ptr noundef %20, ptr noundef @dissect_ldp_tcp.catch_spec, i64 noundef 1)
  %121 = getelementptr inbounds nuw %struct.except_catch, ptr %20, i32 0, i32 3
  %122 = getelementptr inbounds [1 x %struct.__jmp_buf_tag], ptr %121, i64 0, i64 0
  %123 = call i32 @_setjmp(ptr noundef %122) #8
  %124 = icmp ne i32 %123, 0
  br i1 %124, label %125, label %127

125:                                              ; preds = %113
  %126 = getelementptr inbounds nuw %struct.except_catch, ptr %20, i32 0, i32 2
  store volatile ptr %126, ptr %17, align 8
  br label %128

127:                                              ; preds = %113
  store volatile ptr null, ptr %17, align 8
  br label %128

128:                                              ; preds = %127, %125
  %129 = load volatile i32, ptr %18, align 4
  %130 = and i32 %129, 1
  %131 = icmp ne i32 %130, 0
  br i1 %131, label %132, label %135

132:                                              ; preds = %128
  %133 = load volatile i32, ptr %18, align 4
  %134 = or i32 %133, 2
  store volatile i32 %134, ptr %18, align 4
  br label %135

135:                                              ; preds = %132, %128
  %136 = load volatile i32, ptr %18, align 4
  %137 = and i32 %136, -2
  store volatile i32 %137, ptr %18, align 4
  %138 = load volatile i32, ptr %18, align 4
  %139 = icmp eq i32 %138, 0
  br i1 %139, label %140, label %147

140:                                              ; preds = %135
  %141 = load volatile ptr, ptr %17, align 8
  %142 = icmp eq ptr %141, null
  br i1 %142, label %143, label %147

143:                                              ; preds = %140
  %144 = load volatile ptr, ptr %15, align 8
  %145 = load ptr, ptr %7, align 8
  %146 = load ptr, ptr %8, align 8
  call void @dissect_ldp_pdu(ptr noundef %144, ptr noundef %145, ptr noundef %146)
  br label %147

147:                                              ; preds = %143, %140, %135
  %148 = load volatile i32, ptr %18, align 4
  %149 = icmp eq i32 %148, 0
  br i1 %149, label %150, label %192

150:                                              ; preds = %147
  %151 = load volatile ptr, ptr %17, align 8
  %152 = icmp ne ptr %151, null
  br i1 %152, label %153, label %192

153:                                              ; preds = %150
  %154 = load volatile ptr, ptr %17, align 8
  %155 = getelementptr inbounds nuw %struct.except_t, ptr %154, i32 0, i32 0
  %156 = getelementptr inbounds nuw %struct.except_id_t, ptr %155, i32 0, i32 1
  %157 = load volatile i64, ptr %156, align 8
  %158 = icmp eq i64 %157, 3
  br i1 %158, label %177, label %159

159:                                              ; preds = %153
  %160 = load volatile ptr, ptr %17, align 8
  %161 = getelementptr inbounds nuw %struct.except_t, ptr %160, i32 0, i32 0
  %162 = getelementptr inbounds nuw %struct.except_id_t, ptr %161, i32 0, i32 1
  %163 = load volatile i64, ptr %162, align 8
  %164 = icmp eq i64 %163, 2
  br i1 %164, label %177, label %165

165:                                              ; preds = %159
  %166 = load volatile ptr, ptr %17, align 8
  %167 = getelementptr inbounds nuw %struct.except_t, ptr %166, i32 0, i32 0
  %168 = getelementptr inbounds nuw %struct.except_id_t, ptr %167, i32 0, i32 1
  %169 = load volatile i64, ptr %168, align 8
  %170 = icmp eq i64 %169, 7
  br i1 %170, label %177, label %171

171:                                              ; preds = %165
  %172 = load volatile ptr, ptr %17, align 8
  %173 = getelementptr inbounds nuw %struct.except_t, ptr %172, i32 0, i32 0
  %174 = getelementptr inbounds nuw %struct.except_id_t, ptr %173, i32 0, i32 1
  %175 = load volatile i64, ptr %174, align 8
  %176 = icmp eq i64 %175, 9
  br i1 %176, label %177, label %192

177:                                              ; preds = %171, %165, %159, %153
  %178 = load volatile i32, ptr %18, align 4
  %179 = or i32 %178, 1
  store volatile i32 %179, ptr %18, align 4
  %180 = icmp ne i32 %179, 0
  br i1 %180, label %181, label %192

181:                                              ; preds = %177
  %182 = load ptr, ptr %6, align 8
  %183 = load ptr, ptr %7, align 8
  %184 = load ptr, ptr %8, align 8
  %185 = load volatile ptr, ptr %17, align 8
  %186 = getelementptr inbounds nuw %struct.except_t, ptr %185, i32 0, i32 0
  %187 = getelementptr inbounds nuw %struct.except_id_t, ptr %186, i32 0, i32 1
  %188 = load volatile i64, ptr %187, align 8
  %189 = load volatile ptr, ptr %17, align 8
  %190 = getelementptr inbounds nuw %struct.except_t, ptr %189, i32 0, i32 1
  %191 = load volatile ptr, ptr %190, align 8
  call void @show_exception(ptr noundef %182, ptr noundef %183, ptr noundef %184, i64 noundef %188, ptr noundef %191)
  br label %192

192:                                              ; preds = %181, %177, %171, %150, %147
  %193 = load volatile i32, ptr %18, align 4
  %194 = and i32 %193, 1
  %195 = icmp ne i32 %194, 0
  br i1 %195, label %201, label %196

196:                                              ; preds = %192
  %197 = load volatile ptr, ptr %17, align 8
  %198 = icmp ne ptr %197, null
  br i1 %198, label %199, label %201

199:                                              ; preds = %196
  %200 = load volatile ptr, ptr %17, align 8
  call void @except_rethrow(ptr noundef %200) #9
  unreachable

201:                                              ; preds = %196, %192
  %202 = getelementptr inbounds nuw %struct.except_catch, ptr %20, i32 0, i32 2
  %203 = getelementptr inbounds nuw %struct.except_t, ptr %202, i32 0, i32 2
  %204 = load volatile ptr, ptr %203, align 8
  call void @except_free(ptr noundef %204)
  %205 = call ptr @except_pop()
  call void @llvm.lifetime.end.p0(i64 248, ptr %20) #7
  call void @llvm.lifetime.end.p0(i64 24, ptr %19) #7
  call void @llvm.lifetime.end.p0(i64 4, ptr %18) #7
  call void @llvm.lifetime.end.p0(i64 8, ptr %17) #7
  %206 = load i16, ptr %13, align 2
  %207 = zext i16 %206 to i32
  %208 = add i32 %207, 4
  %209 = load volatile i32, ptr %11, align 4
  %210 = add i32 %209, %208
  store volatile i32 %210, ptr %11, align 4
  br label %21, !llvm.loop !8

211:                                              ; preds = %21
  %212 = load ptr, ptr %6, align 8
  %213 = call i32 @tvb_captured_length(ptr noundef %212)
  store i32 %213, ptr %5, align 4
  store i32 1, ptr %16, align 4
  br label %214

214:                                              ; preds = %211, %86, %56, %42, %35
  call void @llvm.lifetime.end.p0(i64 8, ptr %15) #7
  call void @llvm.lifetime.end.p0(i64 4, ptr %14) #7
  call void @llvm.lifetime.end.p0(i64 2, ptr %13) #7
  call void @llvm.lifetime.end.p0(i64 4, ptr %12) #7
  call void @llvm.lifetime.end.p0(i64 4, ptr %11) #7
  call void @llvm.lifetime.end.p0(i64 1, ptr %10) #7
  %215 = load i32, ptr %5, align 4
  ret i32 %215
}