; Function Attrs: null_pointer_is_valid sspstrong uwtable
define internal i32 @dissect_ldp_tcp(ptr noundef %0, ptr noundef %1, ptr noundef %2, ptr readnone captures(none) %3) #0 {
  %5 = alloca i8, align 1
  %6 = alloca i32, align 4
  %7 = alloca ptr, align 8
  %8 = alloca ptr, align 8
  %9 = alloca i32, align 4
  %10 = alloca %struct.except_stacknode, align 8
  %11 = alloca %struct.except_catch, align 8
  call void @llvm.lifetime.start.p0(i64 1, ptr nonnull %5)
  store volatile i8 1, ptr %5, align 1
  call void @llvm.lifetime.start.p0(i64 4, ptr nonnull %6)
  store volatile i32 0, ptr %6, align 4
  call void @llvm.lifetime.start.p0(i64 8, ptr nonnull %7)
  %.0..0..0..0.3175 = load volatile i32, ptr %6, align 4
  %12 = call i32 @tvb_reported_length_remaining(ptr noundef %0, i32 noundef %.0..0..0..0.3175)
  %.not76 = icmp eq i32 %12, 0
  br i1 %.not76, label %._crit_edge, label %.lr.ph

.lr.ph:                                           ; preds = %4
  %13 = getelementptr inbounds nuw i8, ptr %1, i64 328
  %14 = getelementptr inbounds nuw i8, ptr %11, i64 48
  %15 = getelementptr inbounds nuw i8, ptr %11, i64 16
  %16 = getelementptr inbounds nuw i8, ptr %11, i64 40
  br label %17

17:                                               ; preds = %.lr.ph, %94
  %.0..0..0..0.32 = load volatile i32, ptr %6, align 4
  %18 = call i32 @tvb_captured_length_remaining(ptr noundef %0, i32 noundef %.0..0..0..0.32)
  %.0..0..0..0.39 = load volatile i8, ptr %5, align 1, !range !6, !noundef !7
  %19 = trunc nuw i8 %.0..0..0..0.39 to i1
  br i1 %19, label %20, label %25

20:                                               ; preds = %17
  %21 = icmp slt i32 %18, 2
  br i1 %21, label %.loopexit, label %22

22:                                               ; preds = %20
  %.0..0..0..0.33 = load volatile i32, ptr %6, align 4
  %23 = call zeroext i16 @tvb_get_ntohs(ptr noundef %0, i32 noundef %.0..0..0..0.33)
  %.not64 = icmp eq i16 %23, 1
  br i1 %.not64, label %24, label %.loopexit

24:                                               ; preds = %22
  store volatile i8 0, ptr %5, align 1
  br label %25

25:                                               ; preds = %24, %17
  %26 = load i8, ptr @ldp_desegment, align 1, !range !6, !noundef !7
  %27 = trunc nuw i8 %26 to i1
  br i1 %27, label %28, label %35

28:                                               ; preds = %25
  %29 = load i16, ptr %13, align 8
  %30 = icmp ne i16 %29, 0
  %31 = icmp slt i32 %18, 4
  %or.cond = select i1 %30, i1 %31, i1 false
  br i1 %or.cond, label %32, label %35

32:                                               ; preds = %28
  %.0..0..0..0.34 = load volatile i32, ptr %6, align 4
  %33 = getelementptr inbounds nuw i8, ptr %1, i64 332
  store i32 %.0..0..0..0.34, ptr %33, align 4
  %34 = getelementptr inbounds nuw i8, ptr %1, i64 336
  store i32 268435455, ptr %34, align 8
  br label %.loopexit

35:                                               ; preds = %28, %25
  %.0..0..0..0.35 = load volatile i32, ptr %6, align 4
  %36 = add i32 %.0..0..0..0.35, 2
  %37 = call zeroext i16 @tvb_get_ntohs(ptr noundef %0, i32 noundef %36)
  %38 = load i8, ptr @ldp_desegment, align 1, !range !6, !noundef !7
  %39 = trunc nuw i8 %38 to i1
  br i1 %39, label %40, label %51

40:                                               ; preds = %35
  %41 = load i16, ptr %13, align 8
  %.not65 = icmp eq i16 %41, 0
  br i1 %.not65, label %51, label %42

42:                                               ; preds = %40
  %43 = zext i16 %37 to i32
  %44 = add nuw nsw i32 %43, 4
  %45 = icmp slt i32 %18, %44
  br i1 %45, label %46, label %51

46:                                               ; preds = %42
  %.0..0..0..0.36 = load volatile i32, ptr %6, align 4
  %47 = getelementptr inbounds nuw i8, ptr %1, i64 332
  store i32 %.0..0..0..0.36, ptr %47, align 4
  %48 = sub i32 %44, %18
  %49 = getelementptr inbounds nuw i8, ptr %1, i64 336
  store i32 %48, ptr %49, align 8
  %50 = sub i32 0, %48
  br label %.loopexit

51:                                               ; preds = %42, %40, %35
  %52 = zext i16 %37 to i32
  %53 = add nuw nsw i32 %52, 4
  %spec.select = call i32 @llvm.smin.i32(i32 %18, i32 %53)
  %.0..0..0..0.37 = load volatile i32, ptr %6, align 4
  %54 = call ptr @tvb_new_subset_length_caplen(ptr noundef %0, i32 noundef %.0..0..0..0.37, i32 noundef %spec.select, i32 noundef %53)
  store volatile ptr %54, ptr %7, align 8
  call void @llvm.lifetime.start.p0(i64 8, ptr nonnull %8)
  call void @llvm.lifetime.start.p0(i64 4, ptr nonnull %9)
  store volatile i32 0, ptr %9, align 4
  call void @llvm.lifetime.start.p0(i64 24, ptr nonnull %10) #7
  call void @llvm.lifetime.start.p0(i64 248, ptr nonnull %11) #7
  call void @except_setup_try(ptr noundef nonnull %10, ptr noundef nonnull %11, ptr noundef nonnull @dissect_ldp_tcp.catch_spec, i64 noundef 1)
  %55 = call i32 @_setjmp(ptr noundef nonnull %14) #8
  %.not66 = icmp eq i32 %55, 0
  %. = select i1 %.not66, ptr null, ptr %15
  store volatile ptr %., ptr %8, align 8
  %.0..0..0..0. = load volatile i32, ptr %9, align 4
  %56 = and i32 %.0..0..0..0., 1
  %.not67 = icmp eq i32 %56, 0
  br i1 %.not67, label %59, label %57

57:                                               ; preds = %51
  %.0..0..0..0.2 = load volatile i32, ptr %9, align 4
  %58 = or i32 %.0..0..0..0.2, 2
  store volatile i32 %58, ptr %9, align 4
  br label %59

59:                                               ; preds = %57, %51
  %.0..0..0..0.3 = load volatile i32, ptr %9, align 4
  %60 = and i32 %.0..0..0..0.3, -2
  store volatile i32 %60, ptr %9, align 4
  %.0..0..0..0.4 = load volatile i32, ptr %9, align 4
  %61 = icmp eq i32 %.0..0..0..0.4, 0
  br i1 %61, label %62, label %65

62:                                               ; preds = %59
  %.0..0..0..0.8 = load volatile ptr, ptr %8, align 8
  %63 = icmp eq ptr %.0..0..0..0.8, null
  br i1 %63, label %64, label %65

64:                                               ; preds = %62
  %.0..0..0..0.18 = load volatile ptr, ptr %7, align 8
  call fastcc void @dissect_ldp_pdu(ptr noundef %.0..0..0..0.18, ptr noundef %1, ptr noundef %2)
  br label %65

65:                                               ; preds = %64, %62, %59
  %.0..0..0..0.5 = load volatile i32, ptr %9, align 4
  %66 = icmp eq i32 %.0..0..0..0.5, 0
  br i1 %66, label %67, label %90

67:                                               ; preds = %65
  %.0..0..0..0.9 = load volatile ptr, ptr %8, align 8
  %.not68 = icmp eq ptr %.0..0..0..0.9, null
  br i1 %.not68, label %90, label %68

68:                                               ; preds = %67
  %.0..0..0..0.10 = load volatile ptr, ptr %8, align 8
  %69 = getelementptr inbounds nuw i8, ptr %.0..0..0..0.10, i64 8
  %70 = load volatile i64, ptr %69, align 8
  %71 = icmp eq i64 %70, 3
  br i1 %71, label %84, label %72

72:                                               ; preds = %68
  %.0..0..0..0.11 = load volatile ptr, ptr %8, align 8
  %73 = getelementptr inbounds nuw i8, ptr %.0..0..0..0.11, i64 8
  %74 = load volatile i64, ptr %73, align 8
  %75 = icmp eq i64 %74, 2
  br i1 %75, label %84, label %76

76:                                               ; preds = %72
  %.0..0..0..0.12 = load volatile ptr, ptr %8, align 8
  %77 = getelementptr inbounds nuw i8, ptr %.0..0..0..0.12, i64 8
  %78 = load volatile i64, ptr %77, align 8
  %79 = icmp eq i64 %78, 7
  br i1 %79, label %84, label %80

80:                                               ; preds = %76
  %.0..0..0..0.13 = load volatile ptr, ptr %8, align 8
  %81 = getelementptr inbounds nuw i8, ptr %.0..0..0..0.13, i64 8
  %82 = load volatile i64, ptr %81, align 8
  %83 = icmp eq i64 %82, 9
  br i1 %83, label %84, label %90

84:                                               ; preds = %80, %76, %72, %68
  %.0..0..0..0.6 = load volatile i32, ptr %9, align 4
  %85 = or i32 %.0..0..0..0.6, 1
  store volatile i32 %85, ptr %9, align 4
  %.0..0..0..0.14 = load volatile ptr, ptr %8, align 8
  %86 = getelementptr inbounds nuw i8, ptr %.0..0..0..0.14, i64 8
  %87 = load volatile i64, ptr %86, align 8
  %.0..0..0..0.15 = load volatile ptr, ptr %8, align 8
  %88 = getelementptr inbounds nuw i8, ptr %.0..0..0..0.15, i64 16
  %89 = load volatile ptr, ptr %88, align 8
  call void @show_exception(ptr noundef %0, ptr noundef %1, ptr noundef %2, i64 noundef %87, ptr noundef %89)
  br label %90

90:                                               ; preds = %84, %80, %67, %65
  %.0..0..0..0.7 = load volatile i32, ptr %9, align 4
  %91 = and i32 %.0..0..0..0.7, 1
  %.not69 = icmp eq i32 %91, 0
  br i1 %.not69, label %92, label %94

92:                                               ; preds = %90
  %.0..0..0..0.16 = load volatile ptr, ptr %8, align 8
  %.not70 = icmp eq ptr %.0..0..0..0.16, null
  br i1 %.not70, label %94, label %93

93:                                               ; preds = %92
  %.0..0..0..0.17 = load volatile ptr, ptr %8, align 8
  call void @except_rethrow(ptr noundef %.0..0..0..0.17) #9
  unreachable

94:                                               ; preds = %92, %90
  %95 = load volatile ptr, ptr %16, align 8
  call void @except_free(ptr noundef %95)
  %96 = call ptr @except_pop()
  call void @llvm.lifetime.end.p0(i64 248, ptr nonnull %11) #7
  call void @llvm.lifetime.end.p0(i64 24, ptr nonnull %10) #7
  call void @llvm.lifetime.end.p0(i64 4, ptr nonnull %9)
  call void @llvm.lifetime.end.p0(i64 8, ptr nonnull %8)
  %.0..0..0..0.38 = load volatile i32, ptr %6, align 4
  %97 = add i32 %.0..0..0..0.38, %53
  store volatile i32 %97, ptr %6, align 4
  %.0..0..0..0.31 = load volatile i32, ptr %6, align 4
  %98 = call i32 @tvb_reported_length_remaining(ptr noundef %0, i32 noundef %.0..0..0..0.31)
  %.not = icmp eq i32 %98, 0
  br i1 %.not, label %._crit_edge, label %17, !llvm.loop !8

._crit_edge:                                      ; preds = %94, %4
  %99 = call i32 @tvb_captured_length(ptr noundef %0)
  br label %.loopexit

.loopexit:                                        ; preds = %22, %20, %._crit_edge, %46, %32
  %.060 = phi i32 [ -268435455, %32 ], [ %50, %46 ], [ %99, %._crit_edge ], [ 0, %20 ], [ 0, %22 ]
  call void @llvm.lifetime.end.p0(i64 8, ptr nonnull %7)
  call void @llvm.lifetime.end.p0(i64 4, ptr nonnull %6)
  call void @llvm.lifetime.end.p0(i64 1, ptr nonnull %5)
  ret i32 %.060
}